target datalayout = "e-m:e-p270:32:32-p271:32:32-p272:64:64-i64:64-i128:128-f80:128-n8:16:32:64-S128"
target triple = "x86_64-pc-linux-gnu"

%struct.Llb_Grp_t_ = type { i32, ptr, ptr, ptr, ptr, ptr, ptr }
%struct.Llb_Man_t_ = type { ptr, ptr, ptr, ptr, ptr, ptr, ptr, ptr, ptr, ptr, ptr, ptr, ptr, ptr, ptr, ptr, ptr }
%struct.Vec_Ptr_t_ = type { i32, i32, ptr }
%struct.Aig_Obj_t_ = type { %union.anon, ptr, ptr, i64, i32, i32, %union.anon.0 }
%union.anon = type { ptr }
%union.anon.0 = type { ptr }
%struct.Aig_Man_t_ = type { ptr, ptr, ptr, ptr, ptr, ptr, ptr, %struct.Aig_Obj_t_, i32, i32, i32, i32, i32, i32, [7 x i32], i32, ptr, i32, ptr, i32, ptr, i32, i32, i32, ptr, i32, i32, i32, i32, i32, ptr, ptr, i32, ptr, ptr, i32, ptr, ptr, i32, i32, i32, ptr, ptr, ptr, ptr, ptr, ptr, ptr, ptr, ptr, ptr, ptr, ptr, ptr, ptr, i32, ptr, ptr, ptr, ptr, i32, i64, i64, i64, ptr, ptr }

; Function Attrs: inlinehint nounwind uwtable
define internal void @Aig_ObjSetTravIdPrevious(ptr noundef %0, ptr noundef %1) #3 {
  %3 = alloca ptr, align 8
  %4 = alloca ptr, align 8
  store ptr %0, ptr %3, align 8, !tbaa !33
  store ptr %1, ptr %4, align 8, !tbaa !34
  %5 = load ptr, ptr %3, align 8, !tbaa !33
  %6 = getelementptr inbounds nuw %struct.Aig_Man_t_, ptr %5, i32 0, i32 38
  %7 = load i32, ptr %6, align 8, !tbaa !38
  %8 = sub nsw i32 %7, 1
  %9 = load ptr, ptr %4, align 8, !tbaa !34
  %10 = getelementptr inbounds nuw %struct.Aig_Obj_t_, ptr %9, i32 0, i32 4
  store i32 %8, ptr %10, align 8, !tbaa !36
  ret void
}

; Function Attrs: inlinehint nounwind uwtable
define internal void @Aig_ObjSetTravIdCurrent(ptr noundef %0, ptr noundef %1) #3 {
  %3 = alloca ptr, align 8
  %4 = alloca ptr, align 8
  store ptr %0, ptr %3, align 8, !tbaa !33
  store ptr %1, ptr %4, align 8, !tbaa !34
  %5 = load ptr, ptr %3, align 8, !tbaa !33
  %6 = getelementptr inbounds nuw %struct.Aig_Man_t_, ptr %5, i32 0, i32 38
  %7 = load i32, ptr %6, align 8, !tbaa !38
  %8 = load ptr, ptr %4, align 8, !tbaa !34
  %9 = getelementptr inbounds nuw %struct.Aig_Obj_t_, ptr %8, i32 0, i32 4
  store i32 %7, ptr %9, align 8, !tbaa !36
  ret void
}

; Function Attrs: inlinehint nounwind uwtable
define internal ptr @Vec_PtrEntry(ptr noundef %0, i32 noundef %1) #3 {
  %3 = alloca ptr, align 8
  %4 = alloca i32, align 4
  store ptr %0, ptr %3, align 8, !tbaa !25
  store i32 %1, ptr %4, align 4, !tbaa !24
  %5 = load ptr, ptr %3, align 8, !tbaa !25
  %6 = getelementptr inbounds nuw %struct.Vec_Ptr_t_, ptr %5, i32 0, i32 2
  %7 = load ptr, ptr %6, align 8, !tbaa !29
  %8 = load i32, ptr %4, align 4, !tbaa !24
  %9 = sext i32 %8 to i64
  %10 = getelementptr inbounds ptr, ptr %7, i64 %9
  %11 = load ptr, ptr %10, align 8, !tbaa !30
  ret ptr %11
}

; Function Attrs: inlinehint nounwind uwtable
define internal i32 @Vec_PtrSize(ptr noundef %0) #3 {
  %2 = alloca ptr, align 8
  store ptr %0, ptr %2, align 8, !tbaa !25
  %3 = load ptr, ptr %2, align 8, !tbaa !25
  %4 = getelementptr inbounds nuw %struct.Vec_Ptr_t_, ptr %3, i32 0, i32 1
  %5 = load i32, ptr %4, align 4, !tbaa !26
  ret i32 %5
}

; Function Attrs: inlinehint nounwind uwtable
define internal ptr @Vec_PtrAlloc(i32 noundef %0) #3 {
  %2 = alloca i32, align 4
  %3 = alloca ptr, align 8
  store i32 %0, ptr %2, align 4, !tbaa !24
  call void @llvm.lifetime.start.p0(i64 8, ptr %3) #8
  %4 = call noalias ptr @malloc(i64 noundef 16) #10
  store ptr %4, ptr %3, align 8, !tbaa !25
  %5 = load i32, ptr %2, align 4, !tbaa !24
  %6 = icmp sgt i32 %5, 0
  br i1 %6, label %7, label %11

7:                                                ; preds = %1
  %8 = load i32, ptr %2, align 4, !tbaa !24
  %9 = icmp slt i32 %8, 8
  br i1 %9, label %10, label %11

10:                                               ; preds = %7
  store i32 8, ptr %2, align 4, !tbaa !24
  br label %11

11:                                               ; preds = %10, %7, %1
  %12 = load ptr, ptr %3, align 8, !tbaa !25
  %13 = getelementptr inbounds nuw %struct.Vec_Ptr_t_, ptr %12, i32 0, i32 1
  store i32 0, ptr %13, align 4, !tbaa !26
  %14 = load i32, ptr %2, align 4, !tbaa !24
  %15 = load ptr, ptr %3, align 8, !tbaa !25
  %16 = getelementptr inbounds nuw %struct.Vec_Ptr_t_, ptr %15, i32 0, i32 0
  store i32 %14, ptr %16, align 8, !tbaa !28
  %17 = load ptr, ptr %3, align 8, !tbaa !25
  %18 = getelementptr inbounds nuw %struct.Vec_Ptr_t_, ptr %17, i32 0, i32 0
  %19 = load i32, ptr %18, align 8, !tbaa !28
  %20 = icmp ne i32 %19, 0
  br i1 %20, label %21, label %28

21:                                               ; preds = %11
  %22 = load ptr, ptr %3, align 8, !tbaa !25
  %23 = getelementptr inbounds nuw %struct.Vec_Ptr_t_, ptr %22, i32 0, i32 0
  %24 = load i32, ptr %23, align 8, !tbaa !28
  %25 = sext i32 %24 to i64
  %26 = mul i64 8, %25
  %27 = call noalias ptr @malloc(i64 noundef %26) #10
  br label %29

28:                                               ; preds = %11
  br label %29

29:                                               ; preds = %28, %21
  %30 = phi ptr [ %27, %21 ], [ null, %28 ]
  %31 = load ptr, ptr %3, align 8, !tbaa !25
  %32 = getelementptr inbounds nuw %struct.Vec_Ptr_t_, ptr %31, i32 0, i32 2
  store ptr %30, ptr %32, align 8, !tbaa !29
  %33 = load ptr, ptr %3, align 8, !tbaa !25
  call void @llvm.lifetime.end.p0(i64 8, ptr %3) #8
  ret ptr %33
}

; Function Attrs: nounwind uwtable
define ptr @Llb_ManGroupCollect(ptr noundef %0) #0 {
  %2 = alloca ptr, align 8
  %3 = alloca ptr, align 8
  %4 = alloca ptr, align 8
  %5 = alloca i32, align 4
  store ptr %0, ptr %2, align 8, !tbaa !8
  call void @llvm.lifetime.start.p0(i64 8, ptr %3) #8
  call void @llvm.lifetime.start.p0(i64 8, ptr %4) #8
  call void @llvm.lifetime.start.p0(i64 4, ptr %5) #8
  %6 = call ptr @Vec_PtrAlloc(i32 noundef 100)
  store ptr %6, ptr %3, align 8, !tbaa !25
  %7 = load ptr, ptr %2, align 8, !tbaa !8
  %8 = getelementptr inbounds nuw %struct.Llb_Grp_t_, ptr %7, i32 0, i32 4
  %9 = load ptr, ptr %8, align 8, !tbaa !10
  %10 = getelementptr inbounds nuw %struct.Llb_Man_t_, ptr %9, i32 0, i32 2
  %11 = load ptr, ptr %10, align 8, !tbaa !49
  call void @Aig_ManIncrementTravId(ptr noundef %11)
  store i32 0, ptr %5, align 4, !tbaa !24
  br label %12

12:                                               ; preds = %34, %1
  %13 = load i32, ptr %5, align 4, !tbaa !24
  %14 = load ptr, ptr %2, align 8, !tbaa !8
  %15 = getelementptr inbounds nuw %struct.Llb_Grp_t_, ptr %14, i32 0, i32 1
  %16 = load ptr, ptr %15, align 8, !tbaa !14
  %17 = call i32 @Vec_PtrSize(ptr noundef %16)
  %18 = icmp slt i32 %13, %17
  br i1 %18, label %19, label %25

19:                                               ; preds = %12
  %20 = load ptr, ptr %2, align 8, !tbaa !8
  %21 = getelementptr inbounds nuw %struct.Llb_Grp_t_, ptr %20, i32 0, i32 1
  %22 = load ptr, ptr %21, align 8, !tbaa !14
  %23 = load i32, ptr %5, align 4, !tbaa !24
  %24 = call ptr @Vec_PtrEntry(ptr noundef %22, i32 noundef %23)
  store ptr %24, ptr %4, align 8, !tbaa !34
  br label %25

25:                                               ; preds = %19, %12
  %26 = phi i1 [ false, %12 ], [ true, %19 ]
  br i1 %26, label %27, label %37

27:                                               ; preds = %25
  %28 = load ptr, ptr %2, align 8, !tbaa !8
  %29 = getelementptr inbounds nuw %struct.Llb_Grp_t_, ptr %28, i32 0, i32 4
  %30 = load ptr, ptr %29, align 8, !tbaa !10
  %31 = getelementptr inbounds nuw %struct.Llb_Man_t_, ptr %30, i32 0, i32 2
  %32 = load ptr, ptr %31, align 8, !tbaa !49
  %33 = load ptr, ptr %4, align 8, !tbaa !34
  call void @Aig_ObjSetTravIdCurrent(ptr noundef %32, ptr noundef %33)
  br label %34

34:                                               ; preds = %27
  %35 = load i32, ptr %5, align 4, !tbaa !24
  %36 = add nsw i32 %35, 1
  store i32 %36, ptr %5, align 4, !tbaa !24
  br label %12, !llvm.loop !50

37:                                               ; preds = %25
  store i32 0, ptr %5, align 4, !tbaa !24
  br label %38

38:                                               ; preds = %60, %37
  %39 = load i32, ptr %5, align 4, !tbaa !24
  %40 = load ptr, ptr %2, align 8, !tbaa !8
  %41 = getelementptr inbounds nuw %struct.Llb_Grp_t_, ptr %40, i32 0, i32 2
  %42 = load ptr, ptr %41, align 8, !tbaa !15
  %43 = call i32 @Vec_PtrSize(ptr noundef %42)
  %44 = icmp slt i32 %39, %43
  br i1 %44, label %45, label %51

45:                                               ; preds = %38
  %46 = load ptr, ptr %2, align 8, !tbaa !8
  %47 = getelementptr inbounds nuw %struct.Llb_Grp_t_, ptr %46, i32 0, i32 2
  %48 = load ptr, ptr %47, align 8, !tbaa !15
  %49 = load i32, ptr %5, align 4, !tbaa !24
  %50 = call ptr @Vec_PtrEntry(ptr noundef %48, i32 noundef %49)
  store ptr %50, ptr %4, align 8, !tbaa !34
  br label %51

51:                                               ; preds = %45, %38
  %52 = phi i1 [ false, %38 ], [ true, %45 ]
  br i1 %52, label %53, label %63

53:                                               ; preds = %51
  %54 = load ptr, ptr %2, align 8, !tbaa !8
  %55 = getelementptr inbounds nuw %struct.Llb_Grp_t_, ptr %54, i32 0, i32 4
  %56 = load ptr, ptr %55, align 8, !tbaa !10
  %57 = getelementptr inbounds nuw %struct.Llb_Man_t_, ptr %56, i32 0, i32 2
  %58 = load ptr, ptr %57, align 8, !tbaa !49
  %59 = load ptr, ptr %4, align 8, !tbaa !34
  call void @Aig_ObjSetTravIdPrevious(ptr noundef %58, ptr noundef %59)
  br label %60

60:                                               ; preds = %53
  %61 = load i32, ptr %5, align 4, !tbaa !24
  %62 = add nsw i32 %61, 1
  store i32 %62, ptr %5, align 4, !tbaa !24
  br label %38, !llvm.loop !52

63:                                               ; preds = %51
  store i32 0, ptr %5, align 4, !tbaa !24
  br label %64

64:                                               ; preds = %87, %63
  %65 = load i32, ptr %5, align 4, !tbaa !24
  %66 = load ptr, ptr %2, align 8, !tbaa !8
  %67 = getelementptr inbounds nuw %struct.Llb_Grp_t_, ptr %66, i32 0, i32 2
  %68 = load ptr, ptr %67, align 8, !tbaa !15
  %69 = call i32 @Vec_PtrSize(ptr noundef %68)
  %70 = icmp slt i32 %65, %69
  br i1 %70, label %71, label %77

71:                                               ; preds = %64
  %72 = load ptr, ptr %2, align 8, !tbaa !8
  %73 = getelementptr inbounds nuw %struct.Llb_Grp_t_, ptr %72, i32 0, i32 2
  %74 = load ptr, ptr %73, align 8, !tbaa !15
  %75 = load i32, ptr %5, align 4, !tbaa !24
  %76 = call ptr @Vec_PtrEntry(ptr noundef %74, i32 noundef %75)
  store ptr %76, ptr %4, align 8, !tbaa !34
  br label %77

77:                                               ; preds = %71, %64
  %78 = phi i1 [ false, %64 ], [ true, %71 ]
  br i1 %78, label %79, label %90

79:                                               ; preds = %77
  %80 = load ptr, ptr %2, align 8, !tbaa !8
  %81 = getelementptr inbounds nuw %struct.Llb_Grp_t_, ptr %80, i32 0, i32 4
  %82 = load ptr, ptr %81, align 8, !tbaa !10
  %83 = getelementptr inbounds nuw %struct.Llb_Man_t_, ptr %82, i32 0, i32 2
  %84 = load ptr, ptr %83, align 8, !tbaa !49
  %85 = load ptr, ptr %4, align 8, !tbaa !34
  %86 = load ptr, ptr %3, align 8, !tbaa !25
  call void @Llb_ManGroupCollect_rec(ptr noundef %84, ptr noundef %85, ptr noundef %86)
  br label %87

87:                                               ; preds = %79
  %88 = load i32, ptr %5, align 4, !tbaa !24
  %89 = add nsw i32 %88, 1
  store i32 %89, ptr %5, align 4, !tbaa !24
  br label %64, !llvm.loop !53

90:                                               ; preds = %77
  %91 = load ptr, ptr %3, align 8, !tbaa !25
  call void @llvm.lifetime.end.p0(i64 4, ptr %5) #8
  call void @llvm.lifetime.end.p0(i64 8, ptr %4) #8
  call void @llvm.lifetime.end.p0(i64 8, ptr %3) #8
  ret ptr %91
}