; Function Attrs: nounwind uwtable
define noundef ptr @Llb_ManGroupCollect(ptr noundef readonly captures(none) %0) local_unnamed_addr #3 {
  %2 = tail call noalias dereferenceable_or_null(16) ptr @malloc(i64 noundef 16) #14
  %3 = getelementptr inbounds nuw i8, ptr %2, i64 4
  store i32 0, ptr %3, align 4, !tbaa !12
  store i32 100, ptr %2, align 8, !tbaa !14
  %4 = tail call noalias dereferenceable_or_null(800) ptr @malloc(i64 noundef 800) #14
  %5 = getelementptr inbounds nuw i8, ptr %2, i64 8
  store ptr %4, ptr %5, align 8, !tbaa !15
  %6 = getelementptr inbounds nuw i8, ptr %0, i64 32
  %7 = load ptr, ptr %6, align 8, !tbaa !3
  %8 = getelementptr inbounds nuw i8, ptr %7, i64 16
  %9 = load ptr, ptr %8, align 8, !tbaa !42
  tail call void @Aig_ManIncrementTravId(ptr noundef %9) #16
  %10 = getelementptr inbounds nuw i8, ptr %0, i64 8
  %11 = load ptr, ptr %10, align 8, !tbaa !16
  %12 = getelementptr i8, ptr %11, i64 4
  %.val28 = load i32, ptr %12, align 4, !tbaa !12
  %13 = icmp sgt i32 %.val28, 0
  br i1 %13, label %.lr.ph, label %.critedge.preheader

.lr.ph:                                           ; preds = %1
  %14 = getelementptr i8, ptr %11, i64 8
  %.val30 = load ptr, ptr %14, align 8, !tbaa !15
  %15 = load ptr, ptr %6, align 8, !tbaa !3
  %16 = getelementptr inbounds nuw i8, ptr %15, i64 16
  %17 = load ptr, ptr %16, align 8, !tbaa !42
  %18 = getelementptr i8, ptr %17, i64 312
  %.val29 = load i32, ptr %18, align 8, !tbaa !28
  %wide.trip.count = zext nneg i32 %.val28 to i64
  br label %29

.critedge.preheader:                              ; preds = %29, %1
  %19 = getelementptr inbounds nuw i8, ptr %0, i64 16
  %20 = load ptr, ptr %19, align 8, !tbaa !17
  %21 = getelementptr i8, ptr %20, i64 4
  %.val27 = load i32, ptr %21, align 4, !tbaa !12
  %22 = icmp sgt i32 %.val27, 0
  br i1 %22, label %.lr.ph36, label %.critedge4

.lr.ph36:                                         ; preds = %.critedge.preheader
  %23 = getelementptr i8, ptr %20, i64 8
  %.val31 = load ptr, ptr %23, align 8, !tbaa !15
  %24 = load ptr, ptr %6, align 8, !tbaa !3
  %25 = getelementptr inbounds nuw i8, ptr %24, i64 16
  %26 = load ptr, ptr %25, align 8, !tbaa !42
  %27 = getelementptr i8, ptr %26, i64 312
  %.val33 = load i32, ptr %27, align 8, !tbaa !28
  %28 = add nsw i32 %.val33, -1
  %wide.trip.count45 = zext nneg i32 %.val27 to i64
  br label %.critedge

29:                                               ; preds = %.lr.ph, %29
  %indvars.iv = phi i64 [ 0, %.lr.ph ], [ %indvars.iv.next, %29 ]
  %30 = getelementptr inbounds nuw ptr, ptr %.val30, i64 %indvars.iv
  %31 = load ptr, ptr %30, align 8, !tbaa !26
  %32 = getelementptr inbounds nuw i8, ptr %31, i64 32
  store i32 %.val29, ptr %32, align 8, !tbaa !39
  %indvars.iv.next = add nuw nsw i64 %indvars.iv, 1
  %exitcond.not = icmp eq i64 %indvars.iv.next, %wide.trip.count
  br i1 %exitcond.not, label %.critedge.preheader, label %29, !llvm.loop !43

.critedge:                                        ; preds = %.lr.ph36, %.critedge
  %indvars.iv42 = phi i64 [ 0, %.lr.ph36 ], [ %indvars.iv.next43, %.critedge ]
  %33 = getelementptr inbounds nuw ptr, ptr %.val31, i64 %indvars.iv42
  %34 = load ptr, ptr %33, align 8, !tbaa !26
  %35 = getelementptr inbounds nuw i8, ptr %34, i64 32
  store i32 %28, ptr %35, align 8, !tbaa !39
  %indvars.iv.next43 = add nuw nsw i64 %indvars.iv42, 1
  %exitcond46.not = icmp eq i64 %indvars.iv.next43, %wide.trip.count45
  br i1 %exitcond46.not, label %.critedge2, label %.critedge, !llvm.loop !45

.critedge2:                                       ; preds = %.critedge, %.critedge2
  %indvars.iv47 = phi i64 [ %indvars.iv.next48, %.critedge2 ], [ 0, %.critedge ]
  %36 = phi ptr [ %43, %.critedge2 ], [ %20, %.critedge ]
  %37 = getelementptr i8, ptr %36, i64 8
  %.val32 = load ptr, ptr %37, align 8, !tbaa !15
  %38 = getelementptr inbounds nuw ptr, ptr %.val32, i64 %indvars.iv47
  %39 = load ptr, ptr %38, align 8, !tbaa !26
  %40 = load ptr, ptr %6, align 8, !tbaa !3
  %41 = getelementptr inbounds nuw i8, ptr %40, i64 16
  %42 = load ptr, ptr %41, align 8, !tbaa !42
  tail call void @Llb_ManGroupCollect_rec(ptr noundef %42, ptr noundef %39, ptr noundef nonnull %2)
  %indvars.iv.next48 = add nuw nsw i64 %indvars.iv47, 1
  %43 = load ptr, ptr %19, align 8, !tbaa !17
  %44 = getelementptr i8, ptr %43, i64 4
  %.val = load i32, ptr %44, align 4, !tbaa !12
  %45 = sext i32 %.val to i64
  %46 = icmp slt i64 %indvars.iv.next48, %45
  br i1 %46, label %.critedge2, label %.critedge4, !llvm.loop !46

.critedge4:                                       ; preds = %.critedge2, %.critedge.preheader
  ret ptr %2
}